target datalayout = "e-m:e-p270:32:32-p271:32:32-p272:64:64-i64:64-i128:128-f80:128-n8:16:32:64-S128"
target triple = "x86_64-pc-linux-gnu"

%struct._lv_draw_buf_t = type { %struct.lv_image_header_t, i32, ptr, ptr, ptr }
%struct.lv_image_header_t = type <{ i64, i32 }>

; Function Attrs: nounwind uwtable
define void @lv_draw_buf_set_flag(ptr noundef %0, i32 noundef %1) #0 {
  %3 = alloca ptr, align 8
  %4 = alloca i32, align 4
  store ptr %0, ptr %3, align 8, !tbaa !22
  store i32 %1, ptr %4, align 4, !tbaa !18
  %5 = load i32, ptr %4, align 4, !tbaa !18
  %6 = load ptr, ptr %3, align 8, !tbaa !22
  %7 = getelementptr inbounds nuw %struct._lv_draw_buf_t, ptr %6, i32 0, i32 0
  %8 = load i64, ptr %7, align 8
  %9 = lshr i64 %8, 16
  %10 = and i64 %9, 65535
  %11 = trunc i64 %10 to i32
  %12 = or i32 %11, %5
  %13 = zext i32 %12 to i64
  %14 = load i64, ptr %7, align 8
  %15 = and i64 %13, 65535
  %16 = shl i64 %15, 16
  %17 = and i64 %14, -4294901761
  %18 = or i64 %17, %16
  store i64 %18, ptr %7, align 8
  ret void
}