; Function Attrs: mustprogress nofree norecurse nosync nounwind willreturn memory(argmem: readwrite) uwtable
define void @lv_draw_buf_set_flag(ptr noundef captures(none) %0, i32 noundef %1) local_unnamed_addr #6 {
  %3 = load i64, ptr %0, align 8
  %4 = trunc i64 %3 to i32
  %5 = shl i32 %1, 16
  %.masked = and i32 %4, -65536
  %6 = or i32 %.masked, %5
  %7 = zext i32 %6 to i64
  %8 = and i64 %3, -4294901761
  %9 = or disjoint i64 %8, %7
  store i64 %9, ptr %0, align 8
  ret void
}